target datalayout = "e-m:e-p270:32:32-p271:32:32-p272:64:64-i64:64-i128:128-f80:128-n8:16:32:64-S128"
target triple = "x86_64-pc-linux-gnu"

%class.macro_util = type { ptr, %class.bv_util, %class.arith_util, %class.arith_rewriter, %class.bv_rewriter, ptr, ptr }
%class.bv_util = type { %class.bv_recognizers, ptr, ptr }
%class.bv_recognizers = type { i32 }
%class.arith_util = type { ptr, ptr }
%class.arith_rewriter = type { %class.poly_rewriter.base, i8, i8, i8, i8, i8, i8, i8, i8, i32 }
%class.poly_rewriter.base = type <{ %class.arith_rewriter_core.base, [5 x i8], ptr, %class.obj_map, i8, i8, [2 x i8], i32, i8, i8, i8, i8 }>
%class.arith_rewriter_core.base = type <{ ptr, %class.arith_util, %class.scoped_ptr, i8, i8, i8 }>
%class.scoped_ptr = type { ptr }
%class.obj_map = type { %class.core_hashtable }
%class.core_hashtable = type <{ ptr, i32, i32, i32, [4 x i8] }>
%class.bv_rewriter = type <{ %class.poly_rewriter.base.1, [4 x i8], %class.mk_extract_proc, %class.arith_util, i8, i8, i8, i8, i8, i8, i8, i8, i8, i8, i8, i8, i8, [3 x i8] }>
%class.poly_rewriter.base.1 = type <{ %class.bv_rewriter_core, ptr, %class.obj_map, i8, i8, [2 x i8], i32, i8, i8, i8, i8 }>
%class.bv_rewriter_core = type { ptr, %class.bv_util, %class.obj_ref }
%class.obj_ref = type { ptr, ptr }
%class.mk_extract_proc = type { ptr, i32, i32, ptr, ptr }

; Function Attrs: mustprogress uwtable
define hidden noundef zeroext i1 @_ZN10macro_util18rest_contains_declEP9func_declP4expr(ptr noundef nonnull align 8 dereferenceable(320) %0, ptr noundef %1, ptr noundef %2) #4 align 2 {
  %4 = alloca i1, align 1
  %5 = alloca ptr, align 8
  %6 = alloca ptr, align 8
  %7 = alloca ptr, align 8
  %8 = alloca i32, align 4
  %9 = alloca i32, align 4
  %10 = alloca i32, align 4
  %11 = alloca ptr, align 8
  store ptr %0, ptr %5, align 8, !tbaa !3
  store ptr %1, ptr %6, align 8, !tbaa !91
  store ptr %2, ptr %7, align 8, !tbaa !50
  %12 = load ptr, ptr %5, align 8
  %13 = getelementptr inbounds nuw %class.macro_util, ptr %12, i32 0, i32 6
  %14 = load ptr, ptr %13, align 8, !tbaa !37
  %15 = icmp eq ptr %14, null
  br i1 %15, label %16, label %17

16:                                               ; preds = %3
  store i1 false, ptr %4, align 1
  br label %54

17:                                               ; preds = %3
  call void @llvm.lifetime.start.p0(i64 4, ptr %8) #3
  %18 = getelementptr inbounds nuw %class.macro_util, ptr %12, i32 0, i32 0
  %19 = load ptr, ptr %18, align 8, !tbaa !109
  %20 = getelementptr inbounds nuw %class.macro_util, ptr %12, i32 0, i32 6
  %21 = load ptr, ptr %20, align 8, !tbaa !37
  %22 = call noundef i32 @_Z23get_clause_num_literalsR11ast_managerP4expr(ptr noundef nonnull align 8 dereferenceable(976) %19, ptr noundef %21)
  store i32 %22, ptr %8, align 4, !tbaa !67
  call void @llvm.lifetime.start.p0(i64 4, ptr %9) #3
  store i32 0, ptr %9, align 4, !tbaa !67
  br label %23

23:                                               ; preds = %47, %17
  %24 = load i32, ptr %9, align 4, !tbaa !67
  %25 = load i32, ptr %8, align 4, !tbaa !67
  %26 = icmp ult i32 %24, %25
  br i1 %26, label %28, label %27

27:                                               ; preds = %23
  store i32 2, ptr %10, align 4
  br label %50

28:                                               ; preds = %23
  call void @llvm.lifetime.start.p0(i64 8, ptr %11) #3
  %29 = getelementptr inbounds nuw %class.macro_util, ptr %12, i32 0, i32 0
  %30 = load ptr, ptr %29, align 8, !tbaa !109
  %31 = getelementptr inbounds nuw %class.macro_util, ptr %12, i32 0, i32 6
  %32 = load ptr, ptr %31, align 8, !tbaa !37
  %33 = load i32, ptr %9, align 4, !tbaa !67
  %34 = call noundef ptr @_Z18get_clause_literalR11ast_managerP4exprj(ptr noundef nonnull align 8 dereferenceable(976) %30, ptr noundef %32, i32 noundef %33)
  store ptr %34, ptr %11, align 8, !tbaa !50
  %35 = load ptr, ptr %11, align 8, !tbaa !50
  %36 = load ptr, ptr %7, align 8, !tbaa !50
  %37 = icmp ne ptr %35, %36
  br i1 %37, label %38, label %43

38:                                               ; preds = %28
  %39 = load ptr, ptr %6, align 8, !tbaa !91
  %40 = load ptr, ptr %11, align 8, !tbaa !50
  %41 = call noundef zeroext i1 @_Z6occursP9func_declP4expr(ptr noundef %39, ptr noundef %40)
  br i1 %41, label %42, label %43

42:                                               ; preds = %38
  store i1 true, ptr %4, align 1
  store i32 1, ptr %10, align 4
  br label %44

43:                                               ; preds = %38, %28
  store i32 0, ptr %10, align 4
  br label %44

44:                                               ; preds = %43, %42
  call void @llvm.lifetime.end.p0(i64 8, ptr %11) #3
  %45 = load i32, ptr %10, align 4
  switch i32 %45, label %50 [
    i32 0, label %46
  ]

46:                                               ; preds = %44
  br label %47

47:                                               ; preds = %46
  %48 = load i32, ptr %9, align 4, !tbaa !67
  %49 = add i32 %48, 1
  store i32 %49, ptr %9, align 4, !tbaa !67
  br label %23, !llvm.loop !305

50:                                               ; preds = %44, %27
  call void @llvm.lifetime.end.p0(i64 4, ptr %9) #3
  %51 = load i32, ptr %10, align 4
  switch i32 %51, label %53 [
    i32 2, label %52
  ]

52:                                               ; preds = %50
  store i1 false, ptr %4, align 1
  store i32 1, ptr %10, align 4
  br label %53

53:                                               ; preds = %52, %50
  call void @llvm.lifetime.end.p0(i64 4, ptr %8) #3
  br label %54

54:                                               ; preds = %53, %16
  %55 = load i1, ptr %4, align 1
  ret i1 %55
}