; Function Attrs: mustprogress uwtable
define hidden noundef zeroext i1 @_ZN10macro_util18rest_contains_declEP9func_declP4expr(ptr noundef nonnull readonly align 8 captures(none) dereferenceable(320) %0, ptr noundef %1, ptr noundef readnone captures(address) %2) local_unnamed_addr #3 align 2 {
  %4 = getelementptr inbounds nuw i8, ptr %0, i64 312
  %5 = load ptr, ptr %4, align 8, !tbaa !280
  %6 = icmp eq ptr %5, null
  br i1 %6, label %.critedge19, label %7

7:                                                ; preds = %3
  %8 = load ptr, ptr %0, align 8, !tbaa !108
  %9 = tail call noundef i32 @_Z23get_clause_num_literalsR11ast_managerP4expr(ptr noundef nonnull align 8 dereferenceable(976) %8, ptr noundef nonnull %5)
  %.not1720.not = icmp eq i32 %9, 0
  br i1 %.not1720.not, label %.critedge19, label %.lr.ph

.lr.ph:                                           ; preds = %7, %.critedge
  %.01421 = phi i32 [ %15, %.critedge ], [ 0, %7 ]
  %10 = load ptr, ptr %0, align 8, !tbaa !108
  %11 = load ptr, ptr %4, align 8, !tbaa !280
  %12 = tail call noundef ptr @_Z18get_clause_literalR11ast_managerP4exprj(ptr noundef nonnull align 8 dereferenceable(976) %10, ptr noundef %11, i32 noundef %.01421)
  %.not = icmp eq ptr %12, %2
  br i1 %.not, label %.critedge, label %13

13:                                               ; preds = %.lr.ph
  %14 = tail call noundef zeroext i1 @_Z6occursP9func_declP4expr(ptr noundef %1, ptr noundef %12)
  br i1 %14, label %.critedge19, label %.critedge

.critedge:                                        ; preds = %13, %.lr.ph
  %15 = add nuw i32 %.01421, 1
  %exitcond.not = icmp eq i32 %15, %9
  br i1 %exitcond.not, label %.critedge19, label %.lr.ph, !llvm.loop !281

.critedge19:                                      ; preds = %13, %.critedge, %7, %3
  %.0 = phi i1 [ false, %3 ], [ false, %7 ], [ true, %13 ], [ false, %.critedge ]
  ret i1 %.0
}